target datalayout = "e-m:e-p270:32:32-p271:32:32-p272:64:64-i64:64-i128:128-f80:128-n8:16:32:64-S128"
target triple = "x86_64-pc-linux-gnu"

%struct.packet_provider_data = type { ptr, ptr, ptr, ptr, ptr, ptr }
%struct.wtapng_iface_descriptions_s = type { ptr }
%struct._GArray = type { ptr, i32 }

; Function Attrs: null_pointer_is_valid sspstrong uwtable
define hidden ptr @cap_file_provider_get_interface_description(ptr noundef %0, i32 noundef %1, i32 noundef %2) #0 {
  %4 = alloca ptr, align 8
  %5 = alloca ptr, align 8
  %6 = alloca i32, align 4
  %7 = alloca i32, align 4
  %8 = alloca ptr, align 8
  %9 = alloca ptr, align 8
  %10 = alloca ptr, align 8
  %11 = alloca i32, align 4
  store ptr %0, ptr %5, align 8
  store i32 %1, ptr %6, align 4
  store i32 %2, ptr %7, align 4
  call void @llvm.lifetime.start.p0(i64 8, ptr %8) #4
  call void @llvm.lifetime.start.p0(i64 8, ptr %9) #4
  store ptr null, ptr %9, align 8
  call void @llvm.lifetime.start.p0(i64 8, ptr %10) #4
  %12 = load ptr, ptr %5, align 8
  %13 = getelementptr inbounds nuw %struct.packet_provider_data, ptr %12, i32 0, i32 0
  %14 = load ptr, ptr %13, align 8
  %15 = call ptr @wtap_file_get_idb_info(ptr noundef %14)
  store ptr %15, ptr %8, align 8
  %16 = load ptr, ptr %5, align 8
  %17 = getelementptr inbounds nuw %struct.packet_provider_data, ptr %16, i32 0, i32 0
  %18 = load ptr, ptr %17, align 8
  %19 = load i32, ptr %7, align 4
  %20 = load i32, ptr %6, align 4
  %21 = call i32 @wtap_file_get_shb_global_interface_id(ptr noundef %18, i32 noundef %19, i32 noundef %20)
  store i32 %21, ptr %6, align 4
  %22 = load i32, ptr %6, align 4
  %23 = load ptr, ptr %8, align 8
  %24 = getelementptr inbounds nuw %struct.wtapng_iface_descriptions_s, ptr %23, i32 0, i32 0
  %25 = load ptr, ptr %24, align 8
  %26 = getelementptr inbounds nuw %struct._GArray, ptr %25, i32 0, i32 1
  %27 = load i32, ptr %26, align 8
  %28 = icmp ult i32 %22, %27
  br i1 %28, label %29, label %39

29:                                               ; preds = %3
  %30 = load ptr, ptr %8, align 8
  %31 = getelementptr inbounds nuw %struct.wtapng_iface_descriptions_s, ptr %30, i32 0, i32 0
  %32 = load ptr, ptr %31, align 8
  %33 = getelementptr inbounds nuw %struct._GArray, ptr %32, i32 0, i32 0
  %34 = load ptr, ptr %33, align 8
  %35 = load i32, ptr %6, align 4
  %36 = zext i32 %35 to i64
  %37 = getelementptr ptr, ptr %34, i64 %36
  %38 = load ptr, ptr %37, align 8
  store ptr %38, ptr %9, align 8
  br label %39

39:                                               ; preds = %29, %3
  %40 = load ptr, ptr %8, align 8
  call void @g_free(ptr noundef %40)
  %41 = load ptr, ptr %9, align 8
  %42 = icmp ne ptr %41, null
  br i1 %42, label %43, label %50

43:                                               ; preds = %39
  %44 = load ptr, ptr %9, align 8
  %45 = call i32 @wtap_block_get_string_option_value(ptr noundef %44, i32 noundef 3, ptr noundef %10)
  %46 = icmp eq i32 %45, 0
  br i1 %46, label %47, label %49

47:                                               ; preds = %43
  %48 = load ptr, ptr %10, align 8
  store ptr %48, ptr %4, align 8
  store i32 1, ptr %11, align 4
  br label %51

49:                                               ; preds = %43
  br label %50

50:                                               ; preds = %49, %39
  store ptr null, ptr %4, align 8
  store i32 1, ptr %11, align 4
  br label %51

51:                                               ; preds = %50, %47
  call void @llvm.lifetime.end.p0(i64 8, ptr %10) #4
  call void @llvm.lifetime.end.p0(i64 8, ptr %9) #4
  call void @llvm.lifetime.end.p0(i64 8, ptr %8) #4
  %52 = load ptr, ptr %4, align 8
  ret ptr %52
}